target datalayout = "e-m:e-p270:32:32-p271:32:32-p272:64:64-i64:64-i128:128-f80:128-n8:16:32:64-S128"
target triple = "x86_64-pc-linux-gnu"

%class.macro_util = type { ptr, %class.bv_util, %class.arith_util, %class.arith_rewriter, %class.bv_rewriter, ptr, ptr }
%class.bv_util = type { %class.bv_recognizers, ptr, ptr }
%class.bv_recognizers = type { i32 }
%class.arith_util = type { ptr, ptr }
%class.arith_rewriter = type { %class.poly_rewriter.base, i8, i8, i8, i8, i8, i8, i8, i8, i32 }
%class.poly_rewriter.base = type <{ %class.arith_rewriter_core.base, [5 x i8], ptr, %class.obj_map, i8, i8, [2 x i8], i32, i8, i8, i8, i8 }>
%class.arith_rewriter_core.base = type <{ ptr, %class.arith_util, %class.scoped_ptr, i8, i8, i8 }>
%class.scoped_ptr = type { ptr }
%class.obj_map = type { %class.core_hashtable }
%class.core_hashtable = type <{ ptr, i32, i32, i32, [4 x i8] }>
%class.bv_rewriter = type <{ %class.poly_rewriter.base.1, [4 x i8], %class.mk_extract_proc, %class.arith_util, i8, i8, i8, i8, i8, i8, i8, i8, i8, i8, i8, i8, i8, [3 x i8] }>
%class.poly_rewriter.base.1 = type <{ %class.bv_rewriter_core, ptr, %class.obj_map, i8, i8, [2 x i8], i32, i8, i8, i8, i8 }>
%class.bv_rewriter_core = type { ptr, %class.bv_util, %class.obj_ref }
%class.obj_ref = type { ptr, ptr }
%class.mk_extract_proc = type { ptr, i32, i32, ptr, ptr }

; Function Attrs: mustprogress uwtable
define hidden noundef zeroext i1 @_ZN10macro_util18is_var_plus_groundEP4exprRbRP3varR7obj_refIS0_11ast_managerE(ptr noundef nonnull align 8 dereferenceable(320) %0, ptr noundef %1, ptr noundef nonnull align 1 dereferenceable(1) %2, ptr noundef nonnull align 8 dereferenceable(8) %3, ptr noundef nonnull align 8 dereferenceable(16) %4) #4 align 2 {
  %6 = alloca ptr, align 8
  %7 = alloca ptr, align 8
  %8 = alloca ptr, align 8
  %9 = alloca ptr, align 8
  %10 = alloca ptr, align 8
  store ptr %0, ptr %6, align 8, !tbaa !3
  store ptr %1, ptr %7, align 8, !tbaa !50
  store ptr %2, ptr %8, align 8, !tbaa !59
  store ptr %3, ptr %9, align 8, !tbaa !61
  store ptr %4, ptr %10, align 8, !tbaa !63
  %11 = load ptr, ptr %6, align 8
  %12 = getelementptr inbounds nuw %class.macro_util, ptr %11, i32 0, i32 3
  %13 = load ptr, ptr %7, align 8, !tbaa !50
  %14 = load ptr, ptr %8, align 8, !tbaa !59
  %15 = load ptr, ptr %9, align 8, !tbaa !61
  %16 = load ptr, ptr %10, align 8, !tbaa !63
  %17 = call noundef zeroext i1 @_ZN13poly_rewriterI19arith_rewriter_coreE18is_var_plus_groundEP4exprRbRP3varR7obj_refIS2_11ast_managerE(ptr noundef nonnull align 8 dereferenceable(84) %12, ptr noundef %13, ptr noundef nonnull align 1 dereferenceable(1) %14, ptr noundef nonnull align 8 dereferenceable(8) %15, ptr noundef nonnull align 8 dereferenceable(16) %16)
  br i1 %17, label %25, label %18

18:                                               ; preds = %5
  %19 = getelementptr inbounds nuw %class.macro_util, ptr %11, i32 0, i32 4
  %20 = load ptr, ptr %7, align 8, !tbaa !50
  %21 = load ptr, ptr %8, align 8, !tbaa !59
  %22 = load ptr, ptr %9, align 8, !tbaa !61
  %23 = load ptr, ptr %10, align 8, !tbaa !63
  %24 = call noundef zeroext i1 @_ZN13poly_rewriterI16bv_rewriter_coreE18is_var_plus_groundEP4exprRbRP3varR7obj_refIS2_11ast_managerE(ptr noundef nonnull align 8 dereferenceable(92) %19, ptr noundef %20, ptr noundef nonnull align 1 dereferenceable(1) %21, ptr noundef nonnull align 8 dereferenceable(8) %22, ptr noundef nonnull align 8 dereferenceable(16) %23)
  br label %25

25:                                               ; preds = %18, %5
  %26 = phi i1 [ true, %5 ], [ %24, %18 ]
  ret i1 %26
}