; Function Attrs: mustprogress uwtable
define hidden noundef zeroext i1 @_ZN10macro_util18is_var_plus_groundEP4exprRbRP3varR7obj_refIS0_11ast_managerE(ptr noundef nonnull align 8 dereferenceable(320) %0, ptr noundef %1, ptr noundef nonnull align 1 dereferenceable(1) %2, ptr noundef nonnull align 8 dereferenceable(8) %3, ptr noundef nonnull align 8 dereferenceable(16) %4) local_unnamed_addr #3 align 2 {
  %6 = getelementptr inbounds nuw i8, ptr %0, i64 48
  %7 = tail call noundef zeroext i1 @_ZN13poly_rewriterI19arith_rewriter_coreE18is_var_plus_groundEP4exprRbRP3varR7obj_refIS2_11ast_managerE(ptr noundef nonnull align 8 dereferenceable(84) %6, ptr noundef %1, ptr noundef nonnull align 1 dereferenceable(1) %2, ptr noundef nonnull align 8 dereferenceable(8) %3, ptr noundef nonnull align 8 dereferenceable(16) %4)
  br i1 %7, label %11, label %8

8:                                                ; preds = %5
  %9 = getelementptr inbounds nuw i8, ptr %0, i64 144
  %10 = tail call noundef zeroext i1 @_ZN13poly_rewriterI16bv_rewriter_coreE18is_var_plus_groundEP4exprRbRP3varR7obj_refIS2_11ast_managerE(ptr noundef nonnull align 8 dereferenceable(92) %9, ptr noundef %1, ptr noundef nonnull align 1 dereferenceable(1) %2, ptr noundef nonnull align 8 dereferenceable(8) %3, ptr noundef nonnull align 8 dereferenceable(16) %4)
  br label %11

11:                                               ; preds = %8, %5
  %12 = phi i1 [ true, %5 ], [ %10, %8 ]
  ret i1 %12
}